#include <math.h>
#include <stdio.h>
#include <stdlib.h>
#include <string.h>

int main()
{
    int n,a,b,c,d,e; 
    n=0;
    a=0;
    b=0;
    c=0;
    d=0;
    e=0;
    scanf("%d",&n);
    for(a=2;a<=n;a++)
    {
                     d=0;
                     c=0;
                     for(b=2;b<a;b++)
                     {
                                      if((a-(a/b)*b)==0) c=100;
                     }
                     if(c==0)
                     {
                                      d=a-2;
                                      {
                                              for(b=2;b<d;b++)
                                              {
                                                              if((d-(d/b)*b)==0) c=100;
                                              }
                                      }
                     }
                     if(d<=2) c=100;
                     if(c==0) 
                     {
                              printf("%d %d\n",d,a);
                              e=100;
                     } 
    }
    if(e==0) printf("empty");
}
